; Function Attrs: mustprogress nofree norecurse nosync nounwind willreturn memory(argmem: write) uwtable
define dso_local void @_ZN4Luau8PropertyC2Ev(ptr noundef nonnull align 8 dereferenceable(176) initializes((0, 1)) %0) unnamed_addr #6 align 2 personality ptr @__gxx_personality_v0 {
  store i8 0, ptr %0, align 8, !tbaa !234
  %2 = getelementptr inbounds nuw i8, ptr %0, i64 8
  %3 = getelementptr inbounds nuw i8, ptr %0, i64 24
  store ptr %3, ptr %2, align 8, !tbaa !20
  %4 = getelementptr inbounds nuw i8, ptr %0, i64 16
  store i64 0, ptr %4, align 8, !tbaa !18
  store i8 0, ptr %3, align 8, !tbaa !19
  %5 = getelementptr inbounds nuw i8, ptr %0, i64 56
  store i8 0, ptr %5, align 8, !tbaa !27
  %6 = getelementptr inbounds nuw i8, ptr %0, i64 76
  store i8 0, ptr %6, align 4, !tbaa !27
  %7 = getelementptr inbounds nuw i8, ptr %0, i64 80
  tail call void @llvm.memset.p0.i64(ptr noundef nonnull align 8 dereferenceable(24) %7, i8 0, i64 24, i1 false)
  %8 = getelementptr inbounds nuw i8, ptr %0, i64 136
  store i8 0, ptr %8, align 8, !tbaa !24
  %9 = getelementptr inbounds nuw i8, ptr %0, i64 152
  store i8 0, ptr %9, align 8, !tbaa !239
  %10 = getelementptr inbounds nuw i8, ptr %0, i64 168
  store i8 0, ptr %10, align 8, !tbaa !239
  ret void
}